; Function Attrs: mustprogress nounwind uwtable
define hidden noundef nonnull align 8 dereferenceable(36) ptr @_ZN4llvh11raw_ostream5writeEh(ptr noundef nonnull returned align 8 dereferenceable(36) %this, i8 noundef zeroext %C) local_unnamed_addr #0 align 2 {
entry:
  %C.addr = alloca i8, align 1
  %OutBufCur = getelementptr inbounds i8, ptr %this, i64 24
  %OutBufEnd = getelementptr inbounds i8, ptr %this, i64 16
  %0 = load ptr, ptr %OutBufCur, align 8
  %1 = load ptr, ptr %OutBufEnd, align 8
  %cmp.not11 = icmp ult ptr %0, %1
  br i1 %cmp.not11, label %if.end6, label %if.then.lr.ph

if.then.lr.ph:                                    ; preds = %entry
  %OutBufStart = getelementptr inbounds i8, ptr %this, i64 8
  %BufferMode = getelementptr inbounds i8, ptr %this, i64 32
  %2 = load ptr, ptr %OutBufStart, align 8
  %tobool.not30 = icmp eq ptr %2, null
  br i1 %tobool.not30, label %if.then2, label %if.end5

if.then:                                          ; preds = %if.end
  %3 = load ptr, ptr %OutBufStart, align 8
  %tobool.not = icmp eq ptr %3, null
  br i1 %tobool.not, label %if.then2, label %if.end5

if.then2:                                         ; preds = %if.then.lr.ph, %if.then
  %4 = load i32, ptr %BufferMode, align 8
  %cmp3 = icmp eq i32 %4, 0
  br i1 %cmp3, label %if.then4, label %if.end

if.then4:                                         ; preds = %if.then2
  store i8 %C, ptr %C.addr, align 1
  %vtable = load ptr, ptr %this, align 8
  %vfn = getelementptr inbounds i8, ptr %vtable, i64 56
  %5 = load ptr, ptr %vfn, align 8
  call void %5(ptr noundef nonnull align 8 dereferenceable(36) %this, ptr noundef nonnull %C.addr, i64 noundef 1) #26
  br label %return

if.end:                                           ; preds = %if.then2
  tail call void @_ZN4llvh11raw_ostream11SetBufferedEv(ptr noundef nonnull align 8 dereferenceable(36) %this)
  %6 = load ptr, ptr %OutBufCur, align 8
  %7 = load ptr, ptr %OutBufEnd, align 8
  %cmp.not = icmp ult ptr %6, %7
  br i1 %cmp.not, label %if.end6, label %if.then

if.end5:                                          ; preds = %if.then, %if.then.lr.ph
  %.lcssa26 = phi ptr [ %0, %if.then.lr.ph ], [ %6, %if.then ]
  %.lcssa = phi ptr [ %2, %if.then.lr.ph ], [ %3, %if.then ]
  %sub.ptr.lhs.cast.i = ptrtoint ptr %.lcssa26 to i64
  %sub.ptr.rhs.cast.i = ptrtoint ptr %.lcssa to i64
  %sub.ptr.sub.i = sub i64 %sub.ptr.lhs.cast.i, %sub.ptr.rhs.cast.i
  store ptr %.lcssa, ptr %OutBufCur, align 8
  %vtable.i = load ptr, ptr %this, align 8
  %vfn.i = getelementptr inbounds i8, ptr %vtable.i, i64 56
  %8 = load ptr, ptr %vfn.i, align 8
  tail call void %8(ptr noundef nonnull align 8 dereferenceable(36) %this, ptr noundef nonnull %.lcssa, i64 noundef %sub.ptr.sub.i) #26
  %.pre = load ptr, ptr %OutBufCur, align 8
  br label %if.end6

if.end6:                                          ; preds = %if.end, %entry, %if.end5
  %9 = phi ptr [ %.pre, %if.end5 ], [ %0, %entry ], [ %6, %if.end ]
  %incdec.ptr = getelementptr inbounds i8, ptr %9, i64 1
  store ptr %incdec.ptr, ptr %OutBufCur, align 8
  store i8 %C, ptr %9, align 1
  br label %return

return:                                           ; preds = %if.end6, %if.then4
  ret ptr %this
}